target datalayout = "e-m:e-p270:32:32-p271:32:32-p272:64:64-i64:64-i128:128-f80:128-n8:16:32:64-S128"
target triple = "x86_64-pc-linux-gnu"

%struct.cmsCIEXYZ = type { double, double, double }

; Function Attrs: nounwind uwtable
define hidden i32 @cmsDetectBlackPoint(ptr noundef %0, ptr noundef %1, i32 noundef %2, i32 noundef %3) #0 {
  %5 = alloca i32, align 4
  %6 = alloca ptr, align 8
  %7 = alloca ptr, align 8
  %8 = alloca i32, align 4
  %9 = alloca i32, align 4
  %10 = alloca i32, align 4
  store ptr %0, ptr %6, align 8
  store ptr %1, ptr %7, align 8
  store i32 %2, ptr %8, align 4
  store i32 %3, ptr %9, align 4
  %11 = load ptr, ptr %7, align 8
  %12 = call i32 @cmsGetDeviceClass(ptr noundef %11)
  store i32 %12, ptr %10, align 4
  %13 = load i32, ptr %10, align 4
  %14 = icmp eq i32 %13, 1818848875
  br i1 %14, label %21, label %15

15:                                               ; preds = %4
  %16 = load i32, ptr %10, align 4
  %17 = icmp eq i32 %16, 1633842036
  br i1 %17, label %21, label %18

18:                                               ; preds = %15
  %19 = load i32, ptr %10, align 4
  %20 = icmp eq i32 %19, 1852662636
  br i1 %20, label %21, label %28

21:                                               ; preds = %18, %15, %4
  %22 = load ptr, ptr %6, align 8
  %23 = getelementptr inbounds %struct.cmsCIEXYZ, ptr %22, i32 0, i32 2
  store double 0.000000e+00, ptr %23, align 8
  %24 = load ptr, ptr %6, align 8
  %25 = getelementptr inbounds %struct.cmsCIEXYZ, ptr %24, i32 0, i32 1
  store double 0.000000e+00, ptr %25, align 8
  %26 = load ptr, ptr %6, align 8
  %27 = getelementptr inbounds %struct.cmsCIEXYZ, ptr %26, i32 0, i32 0
  store double 0.000000e+00, ptr %27, align 8
  store i32 0, ptr %5, align 4
  br label %90

28:                                               ; preds = %18
  %29 = load i32, ptr %8, align 4
  %30 = icmp ne i32 %29, 0
  br i1 %30, label %31, label %44

31:                                               ; preds = %28
  %32 = load i32, ptr %8, align 4
  %33 = icmp ne i32 %32, 1
  br i1 %33, label %34, label %44

34:                                               ; preds = %31
  %35 = load i32, ptr %8, align 4
  %36 = icmp ne i32 %35, 2
  br i1 %36, label %37, label %44

37:                                               ; preds = %34
  %38 = load ptr, ptr %6, align 8
  %39 = getelementptr inbounds %struct.cmsCIEXYZ, ptr %38, i32 0, i32 2
  store double 0.000000e+00, ptr %39, align 8
  %40 = load ptr, ptr %6, align 8
  %41 = getelementptr inbounds %struct.cmsCIEXYZ, ptr %40, i32 0, i32 1
  store double 0.000000e+00, ptr %41, align 8
  %42 = load ptr, ptr %6, align 8
  %43 = getelementptr inbounds %struct.cmsCIEXYZ, ptr %42, i32 0, i32 0
  store double 0.000000e+00, ptr %43, align 8
  store i32 0, ptr %5, align 4
  br label %90

44:                                               ; preds = %34, %31, %28
  %45 = load ptr, ptr %7, align 8
  %46 = call i32 @cmsGetEncodedICCversion(ptr noundef %45)
  %47 = icmp uge i32 %46, 67108864
  br i1 %47, label %48, label %69

48:                                               ; preds = %44
  %49 = load i32, ptr %8, align 4
  %50 = icmp eq i32 %49, 0
  br i1 %50, label %54, label %51

51:                                               ; preds = %48
  %52 = load i32, ptr %8, align 4
  %53 = icmp eq i32 %52, 2
  br i1 %53, label %54, label %69

54:                                               ; preds = %51, %48
  %55 = load ptr, ptr %7, align 8
  %56 = call i32 @cmsIsMatrixShaper(ptr noundef %55)
  %57 = icmp ne i32 %56, 0
  br i1 %57, label %58, label %62

58:                                               ; preds = %54
  %59 = load ptr, ptr %7, align 8
  %60 = load ptr, ptr %6, align 8
  %61 = call i32 @BlackPointAsDarkerColorant(ptr noundef %59, i32 noundef 1, ptr noundef %60, i32 noundef 0)
  store i32 %61, ptr %5, align 4
  br label %90

62:                                               ; preds = %54
  %63 = load ptr, ptr %6, align 8
  %64 = getelementptr inbounds %struct.cmsCIEXYZ, ptr %63, i32 0, i32 0
  store double 3.360000e-03, ptr %64, align 8
  %65 = load ptr, ptr %6, align 8
  %66 = getelementptr inbounds %struct.cmsCIEXYZ, ptr %65, i32 0, i32 1
  store double 3.473100e-03, ptr %66, align 8
  %67 = load ptr, ptr %6, align 8
  %68 = getelementptr inbounds %struct.cmsCIEXYZ, ptr %67, i32 0, i32 2
  store double 2.870000e-03, ptr %68, align 8
  store i32 1, ptr %5, align 4
  br label %90

69:                                               ; preds = %51, %44
  %70 = load i32, ptr %8, align 4
  %71 = icmp eq i32 %70, 1
  br i1 %71, label %72, label %84

72:                                               ; preds = %69
  %73 = load ptr, ptr %7, align 8
  %74 = call i32 @cmsGetDeviceClass(ptr noundef %73)
  %75 = icmp eq i32 %74, 1886549106
  br i1 %75, label %76, label %84

76:                                               ; preds = %72
  %77 = load ptr, ptr %7, align 8
  %78 = call i32 @cmsGetColorSpace(ptr noundef %77)
  %79 = icmp eq i32 %78, 1129142603
  br i1 %79, label %80, label %84

80:                                               ; preds = %76
  %81 = load ptr, ptr %6, align 8
  %82 = load ptr, ptr %7, align 8
  %83 = call i32 @BlackPointUsingPerceptualBlack(ptr noundef %81, ptr noundef %82)
  store i32 %83, ptr %5, align 4
  br label %90

84:                                               ; preds = %76, %72, %69
  %85 = load ptr, ptr %7, align 8
  %86 = load i32, ptr %8, align 4
  %87 = load ptr, ptr %6, align 8
  %88 = load i32, ptr %9, align 4
  %89 = call i32 @BlackPointAsDarkerColorant(ptr noundef %85, i32 noundef %86, ptr noundef %87, i32 noundef %88)
  store i32 %89, ptr %5, align 4
  br label %90

90:                                               ; preds = %84, %80, %62, %58, %37, %21
  %91 = load i32, ptr %5, align 4
  ret i32 %91
}