; Function Attrs: nounwind uwtable
define hidden range(i32 0, 2) i32 @cmsDetectBlackPoint(ptr noundef %0, ptr noundef %1, i32 noundef %2, i32 %3) local_unnamed_addr #0 {
  %5 = tail call i32 @cmsGetDeviceClass(ptr noundef %1) #8
  switch i32 %5, label %7 [
    i32 1852662636, label %6
    i32 1818848875, label %6
    i32 1633842036, label %6
  ]

6:                                                ; preds = %4, %4, %4
  tail call void @llvm.memset.p0.i64(ptr noundef nonnull align 8 dereferenceable(24) %0, i8 0, i64 24, i1 false)
  br label %31

7:                                                ; preds = %4
  %or.cond7 = icmp ugt i32 %2, 2
  br i1 %or.cond7, label %8, label %9

8:                                                ; preds = %7
  tail call void @llvm.memset.p0.i64(ptr noundef nonnull align 8 dereferenceable(24) %0, i8 0, i64 24, i1 false)
  br label %31

9:                                                ; preds = %7
  %10 = tail call i32 @cmsGetEncodedICCversion(ptr noundef %1) #8
  %11 = icmp ugt i32 %10, 67108863
  %12 = and i32 %2, 1
  %or.cond9 = icmp eq i32 %12, 0
  %or.cond = and i1 %or.cond9, %11
  br i1 %or.cond, label %13, label %19

13:                                               ; preds = %9
  %14 = tail call i32 @cmsIsMatrixShaper(ptr noundef %1) #8
  %.not = icmp eq i32 %14, 0
  br i1 %.not, label %17, label %15

15:                                               ; preds = %13
  %16 = tail call fastcc i32 @BlackPointAsDarkerColorant(ptr noundef %1, i32 noundef 1, ptr noundef %0)
  br label %31

17:                                               ; preds = %13
  store <2 x double> <double 3.360000e-03, double 3.473100e-03>, ptr %0, align 8
  %18 = getelementptr inbounds i8, ptr %0, i64 16
  store double 2.870000e-03, ptr %18, align 8
  br label %31

19:                                               ; preds = %9
  %20 = icmp eq i32 %2, 1
  br i1 %20, label %21, label %29

21:                                               ; preds = %19
  %22 = tail call i32 @cmsGetDeviceClass(ptr noundef %1) #8
  %23 = icmp eq i32 %22, 1886549106
  br i1 %23, label %24, label %29

24:                                               ; preds = %21
  %25 = tail call i32 @cmsGetColorSpace(ptr noundef %1) #8
  %26 = icmp eq i32 %25, 1129142603
  br i1 %26, label %27, label %29

27:                                               ; preds = %24
  %28 = tail call fastcc i32 @BlackPointUsingPerceptualBlack(ptr noundef %0, ptr noundef %1)
  br label %31

29:                                               ; preds = %24, %21, %19
  %30 = tail call fastcc i32 @BlackPointAsDarkerColorant(ptr noundef %1, i32 noundef %2, ptr noundef %0)
  br label %31

31:                                               ; preds = %29, %27, %17, %15, %8, %6
  %.0 = phi i32 [ 0, %6 ], [ 0, %8 ], [ %16, %15 ], [ 1, %17 ], [ %28, %27 ], [ %30, %29 ]
  ret i32 %.0
}